target datalayout = "e-m:e-p270:32:32-p271:32:32-p272:64:64-i64:64-i128:128-f80:128-n8:16:32:64-S128"
target triple = "x86_64-pc-linux-gnu"

@cdb_control_fields = hidden constant [6 x ptr] [ptr @hf_scsi_control_vendor_specific, ptr @hf_scsi_control_reserved, ptr @hf_scsi_control_naca, ptr @hf_scsi_control_obs1, ptr @hf_scsi_control_obs2, ptr null], align 16
@hf_scsi_control = hidden global i32 0, align 4
@ett_scsi_control = hidden global i32 0, align 4
@dissect_spc_logselect.ppcflags_fields = internal constant [3 x ptr] [ptr @hf_scsi_log_pcr, ptr @hf_scsi_log_sp, ptr null], align 16
@dissect_spc_logselect.pcflags_fields = internal constant [2 x ptr] [ptr @hf_scsi_log_pc, ptr null], align 16
@hf_scsi_log_ppc_flags = internal global i32 0, align 4
@ett_scsi_log_ppc = internal global i32 0, align 4
@hf_scsi_log_pc_flags = internal global i32 0, align 4
@ett_scsi_log_pc = internal global i32 0, align 4
@hf_scsi_paramlen16 = internal global i32 0, align 4

; Function Attrs: nounwind uwtable
define hidden void @dissect_spc_logselect(ptr noundef %0, ptr noundef %1, ptr noundef %2, i32 noundef %3, i32 noundef %4, i32 noundef %5, i32 noundef %6, ptr noundef %7) #0 {
  %9 = alloca ptr, align 8
  %10 = alloca ptr, align 8
  %11 = alloca ptr, align 8
  %12 = alloca i32, align 4
  %13 = alloca i32, align 4
  %14 = alloca i32, align 4
  %15 = alloca i32, align 4
  %16 = alloca ptr, align 8
  store ptr %0, ptr %9, align 8
  store ptr %1, ptr %10, align 8
  store ptr %2, ptr %11, align 8
  store i32 %3, ptr %12, align 4
  store i32 %4, ptr %13, align 4
  store i32 %5, ptr %14, align 4
  store i32 %6, ptr %15, align 4
  store ptr %7, ptr %16, align 8
  %17 = load ptr, ptr %11, align 8
  %18 = icmp ne ptr %17, null
  br i1 %18, label %20, label %19

19:                                               ; preds = %8
  br label %54

20:                                               ; preds = %8
  %21 = load i32, ptr %13, align 4
  %22 = icmp ne i32 %21, 0
  br i1 %22, label %23, label %53

23:                                               ; preds = %20
  %24 = load i32, ptr %14, align 4
  %25 = icmp ne i32 %24, 0
  br i1 %25, label %26, label %53

26:                                               ; preds = %23
  %27 = load ptr, ptr %11, align 8
  %28 = load ptr, ptr %9, align 8
  %29 = load i32, ptr %12, align 4
  %30 = load i32, ptr @hf_scsi_log_ppc_flags, align 4
  %31 = load i32, ptr @ett_scsi_log_ppc, align 4
  %32 = call ptr @proto_tree_add_bitmask(ptr noundef %27, ptr noundef %28, i32 noundef %29, i32 noundef %30, i32 noundef %31, ptr noundef @dissect_spc_logselect.ppcflags_fields, i32 noundef 0)
  %33 = load ptr, ptr %11, align 8
  %34 = load ptr, ptr %9, align 8
  %35 = load i32, ptr %12, align 4
  %36 = add i32 %35, 1
  %37 = load i32, ptr @hf_scsi_log_pc_flags, align 4
  %38 = load i32, ptr @ett_scsi_log_pc, align 4
  %39 = call ptr @proto_tree_add_bitmask(ptr noundef %33, ptr noundef %34, i32 noundef %36, i32 noundef %37, i32 noundef %38, ptr noundef @dissect_spc_logselect.pcflags_fields, i32 noundef 0)
  %40 = load ptr, ptr %11, align 8
  %41 = load i32, ptr @hf_scsi_paramlen16, align 4
  %42 = load ptr, ptr %9, align 8
  %43 = load i32, ptr %12, align 4
  %44 = add i32 %43, 6
  %45 = call ptr @proto_tree_add_item(ptr noundef %40, i32 noundef %41, ptr noundef %42, i32 noundef %44, i32 noundef 2, i32 noundef 0)
  %46 = load ptr, ptr %11, align 8
  %47 = load ptr, ptr %9, align 8
  %48 = load i32, ptr %12, align 4
  %49 = add i32 %48, 8
  %50 = load i32, ptr @hf_scsi_control, align 4
  %51 = load i32, ptr @ett_scsi_control, align 4
  %52 = call ptr @proto_tree_add_bitmask(ptr noundef %46, ptr noundef %47, i32 noundef %49, i32 noundef %50, i32 noundef %51, ptr noundef @cdb_control_fields, i32 noundef 0)
  br label %54

53:                                               ; preds = %23, %20
  br label %54

54:                                               ; preds = %53, %26, %19
  ret void
}