; Function Attrs: nounwind uwtable
define hidden void @dissect_spc_logselect(ptr noundef %0, ptr readnone captures(none) %1, ptr noundef %2, i32 noundef %3, i32 noundef %4, i32 noundef %5, i32 %6, ptr readnone captures(none) %7) #0 {
  %.not = icmp eq ptr %2, null
  br i1 %.not, label %27, label %9

9:                                                ; preds = %8
  %10 = icmp ne i32 %4, 0
  %11 = icmp ne i32 %5, 0
  %or.cond = and i1 %10, %11
  br i1 %or.cond, label %12, label %27

12:                                               ; preds = %9
  %13 = load i32, ptr @hf_scsi_log_ppc_flags, align 4
  %14 = load i32, ptr @ett_scsi_log_ppc, align 4
  %15 = tail call ptr @proto_tree_add_bitmask(ptr noundef nonnull %2, ptr noundef %0, i32 noundef %3, i32 noundef %13, i32 noundef %14, ptr noundef nonnull @dissect_spc_logselect.ppcflags_fields, i32 noundef 0) #10
  %16 = add i32 %3, 1
  %17 = load i32, ptr @hf_scsi_log_pc_flags, align 4
  %18 = load i32, ptr @ett_scsi_log_pc, align 4
  %19 = tail call ptr @proto_tree_add_bitmask(ptr noundef nonnull %2, ptr noundef %0, i32 noundef %16, i32 noundef %17, i32 noundef %18, ptr noundef nonnull @dissect_spc_logselect.pcflags_fields, i32 noundef 0) #10
  %20 = load i32, ptr @hf_scsi_paramlen16, align 4
  %21 = add i32 %3, 6
  %22 = tail call ptr @proto_tree_add_item(ptr noundef nonnull %2, i32 noundef %20, ptr noundef %0, i32 noundef %21, i32 noundef 2, i32 noundef 0) #10
  %23 = add i32 %3, 8
  %24 = load i32, ptr @hf_scsi_control, align 4
  %25 = load i32, ptr @ett_scsi_control, align 4
  %26 = tail call ptr @proto_tree_add_bitmask(ptr noundef nonnull %2, ptr noundef %0, i32 noundef %23, i32 noundef %24, i32 noundef %25, ptr noundef nonnull @cdb_control_fields, i32 noundef 0) #10
  br label %27

27:                                               ; preds = %9, %8, %12
  ret void
}